---
triple:          'arm64-apple-darwin'
binary-path:     '/Users/cheeselover/workspace/Budgeting-Calculator/main'
relocations:
  - { offsetInCU: 0x38AE, offset: 0x38AE, size: 0x8, addend: 0x0, symName: __ZNSt3__16chronogtB7v160006IxNS_5ratioILl1ELl1000EEExS3_EEbRKNS0_8durationIT_T0_EERKNS4_IT1_T2_EE, symObjAddr: 0x1098, symBinAddr: 0x1000032E4, symSize: 0x30 }
  - { offsetInCU: 0x390F, offset: 0x390F, size: 0x8, addend: 0x0, symName: __ZNSt3__16chronoltB7v160006IxNS_5ratioILl1ELl1000EEEeNS2_ILl1ELl1EEEEEbRKNS0_8durationIT_T0_EERKNS5_IT1_T2_EE, symObjAddr: 0x1104, symBinAddr: 0x100003350, symSize: 0x34 }
  - { offsetInCU: 0x3970, offset: 0x3970, size: 0x8, addend: 0x0, symName: __ZNSt3__16chrono13duration_castB7v160006INS0_8durationIxNS_5ratioILl1ELl1000000000EEEEExNS3_ILl1ELl1000EEEEENS_9enable_ifIXsr13__is_durationIT_EE5valueES8_E4typeERKNS2_IT0_T1_EE, symObjAddr: 0x1138, symBinAddr: 0x100003384, symSize: 0x30 }
  - { offsetInCU: 0x39B7, offset: 0x39B7, size: 0x8, addend: 0x0, symName: __ZNSt3__16chronoltB7v160006IxNS_5ratioILl1ELl1000000000EEExNS2_ILl1ELl1000EEEEEbRKNS0_8durationIT_T0_EERKNS5_IT1_T2_EE, symObjAddr: 0x1168, symBinAddr: 0x1000033B4, symSize: 0x34 }
  - { offsetInCU: 0x3A18, offset: 0x3A18, size: 0x8, addend: 0x0, symName: __ZNSt3__16chronoltB7v160006IxNS_5ratioILl1ELl1000EEExS3_EEbRKNS0_8durationIT_T0_EERKNS4_IT1_T2_EE, symObjAddr: 0x11F8, symBinAddr: 0x100003444, symSize: 0x34 }
  - { offsetInCU: 0x3AF6, offset: 0x3AF6, size: 0x8, addend: 0x0, symName: __ZNSt3__16chrono13duration_castB7v160006INS0_8durationIeNS_5ratioILl1ELl1000EEEEExS4_EENS_9enable_ifIXsr13__is_durationIT_EE5valueES7_E4typeERKNS2_IT0_T1_EE, symObjAddr: 0x144C, symBinAddr: 0x100003698, symSize: 0x30 }
  - { offsetInCU: 0x3B88, offset: 0x3B88, size: 0x8, addend: 0x0, symName: __ZNSt3__16chrono13duration_castB7v160006INS0_8durationIeNS_5ratioILl1ELl1000EEEEEeNS3_ILl1ELl1EEEEENS_9enable_ifIXsr13__is_durationIT_EE5valueES8_E4typeERKNS2_IT0_T1_EE, symObjAddr: 0x156C, symBinAddr: 0x1000037B8, symSize: 0x30 }
  - { offsetInCU: 0x3C71, offset: 0x3C71, size: 0x8, addend: 0x0, symName: __ZNSt3__124__put_character_sequenceB7v160006IcNS_11char_traitsIcEEEERNS_13basic_ostreamIT_T0_EES7_PKS4_m, symObjAddr: 0x594, symBinAddr: 0x1000027E0, symSize: 0x1EC }
  - { offsetInCU: 0x5A81, offset: 0x5A81, size: 0x8, addend: 0x0, symName: __ZNSt3__1lsB7v160006INS_11char_traitsIcEEEERNS_13basic_ostreamIcT_EES6_PKc, symObjAddr: 0x188, symBinAddr: 0x1000023D4, symSize: 0x48 }
  - { offsetInCU: 0x5AC7, offset: 0x5AC7, size: 0x8, addend: 0x0, symName: __ZNSt3__14endlB7v160006IcNS_11char_traitsIcEEEERNS_13basic_ostreamIT_T0_EES7_, symObjAddr: 0x1FC, symBinAddr: 0x100002448, symSize: 0x58 }
  - { offsetInCU: 0x5B0C, offset: 0x5B0C, size: 0x8, addend: 0x0, symName: __ZNSt3__111this_thread9sleep_forB7v160006IxNS_5ratioILl1ELl1000EEEEEvRKNS_6chrono8durationIT_T0_EE, symObjAddr: 0x254, symBinAddr: 0x1000024A0, symSize: 0xBC }
  - { offsetInCU: 0x5B91, offset: 0x5B91, size: 0x8, addend: 0x0, symName: __ZNSt3__116__pad_and_outputB7v160006IcNS_11char_traitsIcEEEENS_19ostreambuf_iteratorIT_T0_EES6_PKS4_S8_S8_RNS_8ios_baseES4_, symObjAddr: 0x7D0, symBinAddr: 0x100002A1C, symSize: 0x240 }
  - { offsetInCU: 0x5C60, offset: 0x5C60, size: 0x8, addend: 0x0, symName: __ZNSt3__119__debug_db_insert_cB7v160006INS_12basic_stringIcNS_11char_traitsIcEENS_9allocatorIcEEEEEEvPT_, symObjAddr: 0xC90, symBinAddr: 0x100002EDC, symSize: 0x10 }
  - { offsetInCU: 0x5C91, offset: 0x5C91, size: 0x8, addend: 0x0, symName: __ZNSt3__112__to_addressB7v160006IKcEEPT_S3_, symObjAddr: 0xD5C, symBinAddr: 0x100002FA8, symSize: 0x14 }
  - { offsetInCU: 0x5CF9, offset: 0x5CF9, size: 0x8, addend: 0x0, symName: __ZNSt3__19use_facetB7v160006INS_5ctypeIcEEEERKT_RKNS_6localeE, symObjAddr: 0xFDC, symBinAddr: 0x100003228, symSize: 0x2C }
  - { offsetInCU: 0x61C8, offset: 0x61C8, size: 0x8, addend: 0x0, symName: __ZNSt3__118__constexpr_strlenB7v160006EPKc, symObjAddr: 0x1074, symBinAddr: 0x1000032C0, symSize: 0x24 }
  - { offsetInCU: 0x68E8, offset: 0x68E8, size: 0x8, addend: 0x0, symName: __ZNKSt3__16chrono13__duration_ltINS0_8durationIxNS_5ratioILl1ELl1000EEEEENS2_IeNS3_ILl1ELl1EEEEEEclB7v160006ERKS5_RKS7_, symObjAddr: 0x12FC, symBinAddr: 0x100003548, symSize: 0x78 }
  - { offsetInCU: 0x6963, offset: 0x6963, size: 0x8, addend: 0x0, symName: __ZNKSt3__16chrono15__duration_castINS0_8durationIeNS_5ratioILl1ELl1EEEEENS2_IeNS3_ILl1ELl1000EEEEENS3_ILl1000ELl1EEELb0ELb1EEclB7v160006ERKS5_, symObjAddr: 0x159C, symBinAddr: 0x1000037E8, symSize: 0x4C }
  - { offsetInCU: 0x69CD, offset: 0x69CD, size: 0x8, addend: 0x0, symName: __ZNKSt3__16chrono15__duration_castINS0_8durationIxNS_5ratioILl1ELl1000EEEEENS2_IxNS3_ILl1ELl1000000000EEEEENS3_ILl1000000ELl1EEELb0ELb1EEclB7v160006ERKS5_, symObjAddr: 0x1600, symBinAddr: 0x10000384C, symSize: 0x4C }
  - { offsetInCU: 0x6A14, offset: 0x6A14, size: 0x8, addend: 0x0, symName: __ZNKSt3__16chrono13__duration_ltINS0_8durationIxNS_5ratioILl1ELl1000000000EEEEENS2_IxNS3_ILl1ELl1000EEEEEEclB7v160006ERKS5_RKS7_, symObjAddr: 0x16B0, symBinAddr: 0x1000038FC, symSize: 0x6C }
  - { offsetInCU: 0x8B30, offset: 0x8B30, size: 0x8, addend: 0x0, symName: _main, symObjAddr: 0x0, symBinAddr: 0x10000224C, symSize: 0x188 }
  - { offsetInCU: 0x8B93, offset: 0x8B93, size: 0x8, addend: 0x0, symName: __ZNSt3__113basic_ostreamIcNS_11char_traitsIcEEElsB7v160006EPFRS3_S4_E, symObjAddr: 0x1D0, symBinAddr: 0x10000241C, symSize: 0x2C }
  - { offsetInCU: 0x8BD0, offset: 0x8BD0, size: 0x8, addend: 0x0, symName: __ZNSt3__16chrono8durationIxNS_5ratioILl1ELl1000EEEEC1B7v160006IiEERKT_PNS_9enable_ifIXaasr14is_convertibleIS8_xEE5valueooL_ZNS_17integral_constantIbLb0EE5valueEEntsr23treat_as_floating_pointIS6_EE5valueEvE4typeE, symObjAddr: 0x310, symBinAddr: 0x10000255C, symSize: 0x3C }
  - { offsetInCU: 0x8C7E, offset: 0x8C7E, size: 0x8, addend: 0x0, symName: __ZN11StartBudgetC1Ev, symObjAddr: 0x34C, symBinAddr: 0x100002598, symSize: 0x2C }
  - { offsetInCU: 0x8CA8, offset: 0x8CA8, size: 0x8, addend: 0x0, symName: __ZN11StartBudget7getInfoEv, symObjAddr: 0x378, symBinAddr: 0x1000025C4, symSize: 0x1DC }
  - { offsetInCU: 0x8CCD, offset: 0x8CCD, size: 0x8, addend: 0x0, symName: __ZNSt3__16chrono8durationIxNS_5ratioILl1ELl1000EEEEC2B7v160006IiEERKT_PNS_9enable_ifIXaasr14is_convertibleIS8_xEE5valueooL_ZNS_17integral_constantIbLb0EE5valueEEntsr23treat_as_floating_pointIS6_EE5valueEvE4typeE, symObjAddr: 0x554, symBinAddr: 0x1000027A0, symSize: 0x28 }
  - { offsetInCU: 0x8D19, offset: 0x8D19, size: 0x8, addend: 0x0, symName: __ZN11StartBudgetC2Ev, symObjAddr: 0x57C, symBinAddr: 0x1000027C8, symSize: 0x18 }
  - { offsetInCU: 0x8D44, offset: 0x8D44, size: 0x8, addend: 0x0, symName: __ZNSt3__111char_traitsIcE6lengthEPKc, symObjAddr: 0x780, symBinAddr: 0x1000029CC, symSize: 0x34 }
  - { offsetInCU: 0x8D85, offset: 0x8D85, size: 0x8, addend: 0x0, symName: __ZNKSt3__113basic_ostreamIcNS_11char_traitsIcEEE6sentrycvbB7v160006Ev, symObjAddr: 0x7B4, symBinAddr: 0x100002A00, symSize: 0x1C }
  - { offsetInCU: 0x8DAA, offset: 0x8DAA, size: 0x8, addend: 0x0, symName: __ZNSt3__119ostreambuf_iteratorIcNS_11char_traitsIcEEEC1B7v160006ERNS_13basic_ostreamIcS2_EE, symObjAddr: 0xA10, symBinAddr: 0x100002C5C, symSize: 0x34 }
  - { offsetInCU: 0x8DE1, offset: 0x8DE1, size: 0x8, addend: 0x0, symName: __ZNKSt3__18ios_base5flagsB7v160006Ev, symObjAddr: 0xA44, symBinAddr: 0x100002C90, symSize: 0x18 }
  - { offsetInCU: 0x8E08, offset: 0x8E08, size: 0x8, addend: 0x0, symName: __ZNKSt3__19basic_iosIcNS_11char_traitsIcEEE4fillB7v160006Ev, symObjAddr: 0xA5C, symBinAddr: 0x100002CA8, symSize: 0x64 }
  - { offsetInCU: 0x8E2F, offset: 0x8E2F, size: 0x8, addend: 0x0, symName: __ZNKSt3__119ostreambuf_iteratorIcNS_11char_traitsIcEEE6failedB7v160006Ev, symObjAddr: 0xAC0, symBinAddr: 0x100002D0C, symSize: 0x24 }
  - { offsetInCU: 0x8E53, offset: 0x8E53, size: 0x8, addend: 0x0, symName: __ZNSt3__19basic_iosIcNS_11char_traitsIcEEE8setstateB7v160006Ej, symObjAddr: 0xAE4, symBinAddr: 0x100002D30, symSize: 0x2C }
  - { offsetInCU: 0x8E87, offset: 0x8E87, size: 0x8, addend: 0x0, symName: __ZNKSt3__18ios_base5widthB7v160006Ev, symObjAddr: 0xB1C, symBinAddr: 0x100002D68, symSize: 0x18 }
  - { offsetInCU: 0x8EAD, offset: 0x8EAD, size: 0x8, addend: 0x0, symName: __ZNSt3__115basic_streambufIcNS_11char_traitsIcEEE5sputnB7v160006EPKcl, symObjAddr: 0xB34, symBinAddr: 0x100002D80, symSize: 0x3C }
  - { offsetInCU: 0x8EEE, offset: 0x8EEE, size: 0x8, addend: 0x0, symName: __ZNSt3__112basic_stringIcNS_11char_traitsIcEENS_9allocatorIcEEEC1B7v160006Emc, symObjAddr: 0xB70, symBinAddr: 0x100002DBC, symSize: 0x3C }
  - { offsetInCU: 0x8F34, offset: 0x8F34, size: 0x8, addend: 0x0, symName: __ZNKSt3__112basic_stringIcNS_11char_traitsIcEENS_9allocatorIcEEE4dataB7v160006Ev, symObjAddr: 0xBAC, symBinAddr: 0x100002DF8, symSize: 0x28 }
  - { offsetInCU: 0x8F59, offset: 0x8F59, size: 0x8, addend: 0x0, symName: __ZNSt3__18ios_base5widthB7v160006El, symObjAddr: 0xBD4, symBinAddr: 0x100002E20, symSize: 0x2C }
  - { offsetInCU: 0x8F9E, offset: 0x8F9E, size: 0x8, addend: 0x0, symName: __ZNSt3__112basic_stringIcNS_11char_traitsIcEENS_9allocatorIcEEEC2B7v160006Emc, symObjAddr: 0xC00, symBinAddr: 0x100002E4C, symSize: 0x54 }
  - { offsetInCU: 0x8FEA, offset: 0x8FEA, size: 0x8, addend: 0x0, symName: __ZNSt3__117__compressed_pairINS_12basic_stringIcNS_11char_traitsIcEENS_9allocatorIcEEE5__repES5_EC1B7v160006INS_18__default_init_tagESA_EEOT_OT0_, symObjAddr: 0xC54, symBinAddr: 0x100002EA0, symSize: 0x3C }
  - { offsetInCU: 0x9041, offset: 0x9041, size: 0x8, addend: 0x0, symName: __ZNSt3__117__compressed_pairINS_12basic_stringIcNS_11char_traitsIcEENS_9allocatorIcEEE5__repES5_EC2B7v160006INS_18__default_init_tagESA_EEOT_OT0_, symObjAddr: 0xCA0, symBinAddr: 0x100002EEC, symSize: 0x3C }
  - { offsetInCU: 0x9098, offset: 0x9098, size: 0x8, addend: 0x0, symName: __ZNSt3__122__compressed_pair_elemINS_12basic_stringIcNS_11char_traitsIcEENS_9allocatorIcEEE5__repELi0ELb0EEC2B7v160006ENS_18__default_init_tagE, symObjAddr: 0xCDC, symBinAddr: 0x100002F28, symSize: 0x14 }
  - { offsetInCU: 0x90CC, offset: 0x90CC, size: 0x8, addend: 0x0, symName: __ZNSt3__122__compressed_pair_elemINS_9allocatorIcEELi1ELb1EEC2B7v160006ENS_18__default_init_tagE, symObjAddr: 0xCF0, symBinAddr: 0x100002F3C, symSize: 0x2C }
  - { offsetInCU: 0x9100, offset: 0x9100, size: 0x8, addend: 0x0, symName: __ZNSt3__19allocatorIcEC2B7v160006Ev, symObjAddr: 0xD1C, symBinAddr: 0x100002F68, symSize: 0x2C }
  - { offsetInCU: 0x9129, offset: 0x9129, size: 0x8, addend: 0x0, symName: __ZNSt3__116__non_trivial_ifILb1ENS_9allocatorIcEEEC2B7v160006Ev, symObjAddr: 0xD48, symBinAddr: 0x100002F94, symSize: 0x14 }
  - { offsetInCU: 0x9151, offset: 0x9151, size: 0x8, addend: 0x0, symName: __ZNKSt3__112basic_stringIcNS_11char_traitsIcEENS_9allocatorIcEEE13__get_pointerB7v160006Ev, symObjAddr: 0xD70, symBinAddr: 0x100002FBC, symSize: 0x54 }
  - { offsetInCU: 0x9175, offset: 0x9175, size: 0x8, addend: 0x0, symName: __ZNKSt3__112basic_stringIcNS_11char_traitsIcEENS_9allocatorIcEEE9__is_longB7v160006Ev, symObjAddr: 0xDC4, symBinAddr: 0x100003010, symSize: 0x38 }
  - { offsetInCU: 0x9199, offset: 0x9199, size: 0x8, addend: 0x0, symName: __ZNKSt3__112basic_stringIcNS_11char_traitsIcEENS_9allocatorIcEEE18__get_long_pointerB7v160006Ev, symObjAddr: 0xDFC, symBinAddr: 0x100003048, symSize: 0x28 }
  - { offsetInCU: 0x91BD, offset: 0x91BD, size: 0x8, addend: 0x0, symName: __ZNKSt3__112basic_stringIcNS_11char_traitsIcEENS_9allocatorIcEEE19__get_short_pointerB7v160006Ev, symObjAddr: 0xE24, symBinAddr: 0x100003070, symSize: 0x28 }
  - { offsetInCU: 0x91E1, offset: 0x91E1, size: 0x8, addend: 0x0, symName: __ZNKSt3__117__compressed_pairINS_12basic_stringIcNS_11char_traitsIcEENS_9allocatorIcEEE5__repES5_E5firstB7v160006Ev, symObjAddr: 0xE4C, symBinAddr: 0x100003098, symSize: 0x24 }
  - { offsetInCU: 0x9206, offset: 0x9206, size: 0x8, addend: 0x0, symName: __ZNKSt3__122__compressed_pair_elemINS_12basic_stringIcNS_11char_traitsIcEENS_9allocatorIcEEE5__repELi0ELb0EE5__getB7v160006Ev, symObjAddr: 0xE70, symBinAddr: 0x1000030BC, symSize: 0x14 }
  - { offsetInCU: 0x922B, offset: 0x922B, size: 0x8, addend: 0x0, symName: __ZNSt3__114pointer_traitsIPKcE10pointer_toB7v160006ERS1_, symObjAddr: 0xE84, symBinAddr: 0x1000030D0, symSize: 0x14 }
  - { offsetInCU: 0x924E, offset: 0x924E, size: 0x8, addend: 0x0, symName: __ZNSt3__119ostreambuf_iteratorIcNS_11char_traitsIcEEEC2B7v160006ERNS_13basic_ostreamIcS2_EE, symObjAddr: 0xE98, symBinAddr: 0x1000030E4, symSize: 0x54 }
  - { offsetInCU: 0x9285, offset: 0x9285, size: 0x8, addend: 0x0, symName: __ZNKSt3__19basic_iosIcNS_11char_traitsIcEEE5rdbufB7v160006Ev, symObjAddr: 0xEEC, symBinAddr: 0x100003138, symSize: 0x24 }
  - { offsetInCU: 0x92AC, offset: 0x92AC, size: 0x8, addend: 0x0, symName: __ZNKSt3__18ios_base5rdbufB7v160006Ev, symObjAddr: 0xF10, symBinAddr: 0x10000315C, symSize: 0x18 }
  - { offsetInCU: 0x92D1, offset: 0x92D1, size: 0x8, addend: 0x0, symName: __ZNSt3__111char_traitsIcE11eq_int_typeEii, symObjAddr: 0xF28, symBinAddr: 0x100003174, symSize: 0x28 }
  - { offsetInCU: 0x9302, offset: 0x9302, size: 0x8, addend: 0x0, symName: __ZNSt3__111char_traitsIcE3eofEv, symObjAddr: 0xF50, symBinAddr: 0x10000319C, symSize: 0x8 }
  - { offsetInCU: 0x9316, offset: 0x9316, size: 0x8, addend: 0x0, symName: __ZNKSt3__19basic_iosIcNS_11char_traitsIcEEE5widenB7v160006Ec, symObjAddr: 0xF58, symBinAddr: 0x1000031A4, symSize: 0x84 }
  - { offsetInCU: 0x9382, offset: 0x9382, size: 0x8, addend: 0x0, symName: __ZNKSt3__15ctypeIcE5widenB7v160006Ec, symObjAddr: 0x1008, symBinAddr: 0x100003254, symSize: 0x38 }
  - { offsetInCU: 0x93B6, offset: 0x93B6, size: 0x8, addend: 0x0, symName: __ZNSt3__18ios_base8setstateB7v160006Ej, symObjAddr: 0x1040, symBinAddr: 0x10000328C, symSize: 0x34 }
  - { offsetInCU: 0x93EC, offset: 0x93EC, size: 0x8, addend: 0x0, symName: __ZNSt3__16chrono8durationIxNS_5ratioILl1ELl1000EEEE4zeroB7v160006Ev, symObjAddr: 0x10C8, symBinAddr: 0x100003314, symSize: 0x3C }
  - { offsetInCU: 0x9400, offset: 0x9400, size: 0x8, addend: 0x0, symName: __ZNSt3__16chrono8durationIxNS_5ratioILl1ELl1000000000EEEEppB7v160006Ev, symObjAddr: 0x119C, symBinAddr: 0x1000033E8, symSize: 0x20 }
  - { offsetInCU: 0x9425, offset: 0x9425, size: 0x8, addend: 0x0, symName: __ZNSt3__16chrono8durationIxNS_5ratioILl1ELl1000000000EEEE3maxB7v160006Ev, symObjAddr: 0x11BC, symBinAddr: 0x100003408, symSize: 0x3C }
  - { offsetInCU: 0x9442, offset: 0x9442, size: 0x8, addend: 0x0, symName: __ZNKSt3__16chrono13__duration_ltINS0_8durationIxNS_5ratioILl1ELl1000EEEEES5_EclB7v160006ERKS5_S8_, symObjAddr: 0x122C, symBinAddr: 0x100003478, symSize: 0x4C }
  - { offsetInCU: 0x9485, offset: 0x9485, size: 0x8, addend: 0x0, symName: __ZNKSt3__16chrono8durationIxNS_5ratioILl1ELl1000EEEE5countB7v160006Ev, symObjAddr: 0x1278, symBinAddr: 0x1000034C4, symSize: 0x18 }
  - { offsetInCU: 0x94AA, offset: 0x94AA, size: 0x8, addend: 0x0, symName: __ZNSt3__16chrono15duration_valuesIxE4zeroB7v160006Ev, symObjAddr: 0x1290, symBinAddr: 0x1000034DC, symSize: 0x8 }
  - { offsetInCU: 0x94C8, offset: 0x94C8, size: 0x8, addend: 0x0, symName: __ZNSt3__16chrono8durationIxNS_5ratioILl1ELl1000EEEEC1B7v160006IxEERKT_PNS_9enable_ifIXaasr14is_convertibleIS8_xEE5valueooL_ZNS_17integral_constantIbLb0EE5valueEEntsr23treat_as_floating_pointIS6_EE5valueEvE4typeE, symObjAddr: 0x1298, symBinAddr: 0x1000034E4, symSize: 0x3C }
  - { offsetInCU: 0x9514, offset: 0x9514, size: 0x8, addend: 0x0, symName: __ZNSt3__16chrono8durationIxNS_5ratioILl1ELl1000EEEEC2B7v160006IxEERKT_PNS_9enable_ifIXaasr14is_convertibleIS8_xEE5valueooL_ZNS_17integral_constantIbLb0EE5valueEEntsr23treat_as_floating_pointIS6_EE5valueEvE4typeE, symObjAddr: 0x12D4, symBinAddr: 0x100003520, symSize: 0x28 }
  - { offsetInCU: 0x9560, offset: 0x9560, size: 0x8, addend: 0x0, symName: __ZNSt3__16chrono8durationIeNS_5ratioILl1ELl1000EEEEC1B7v160006IxS3_EERKNS1_IT_T0_EEPNS_9enable_ifIXaasr13__no_overflowIS7_S3_EE5valueooL_ZNS_17integral_constantIbLb1EE5valueEEaaeqsr13__no_overflowIS7_S3_E4typeE3denLi1Entsr23treat_as_floating_pointIS6_EE5valueEvE4typeE, symObjAddr: 0x1374, symBinAddr: 0x1000035C0, symSize: 0x3C }
  - { offsetInCU: 0x95B6, offset: 0x95B6, size: 0x8, addend: 0x0, symName: __ZNKSt3__16chrono8durationIeNS_5ratioILl1ELl1000EEEE5countB7v160006Ev, symObjAddr: 0x13B0, symBinAddr: 0x1000035FC, symSize: 0x18 }
  - { offsetInCU: 0x95DB, offset: 0x95DB, size: 0x8, addend: 0x0, symName: __ZNSt3__16chrono8durationIeNS_5ratioILl1ELl1000EEEEC1B7v160006IeNS2_ILl1ELl1EEEEERKNS1_IT_T0_EEPNS_9enable_ifIXaasr13__no_overflowIS8_S3_EE5valueooL_ZNS_17integral_constantIbLb1EE5valueEEaaeqsr13__no_overflowIS8_S3_E4typeE3denLi1Entsr23treat_as_floating_pointIS7_EE5valueEvE4typeE, symObjAddr: 0x13C8, symBinAddr: 0x100003614, symSize: 0x3C }
  - { offsetInCU: 0x9631, offset: 0x9631, size: 0x8, addend: 0x0, symName: __ZNSt3__16chrono8durationIeNS_5ratioILl1ELl1000EEEEC2B7v160006IxS3_EERKNS1_IT_T0_EEPNS_9enable_ifIXaasr13__no_overflowIS7_S3_EE5valueooL_ZNS_17integral_constantIbLb1EE5valueEEaaeqsr13__no_overflowIS7_S3_E4typeE3denLi1Entsr23treat_as_floating_pointIS6_EE5valueEvE4typeE, symObjAddr: 0x1404, symBinAddr: 0x100003650, symSize: 0x48 }
  - { offsetInCU: 0x9690, offset: 0x9690, size: 0x8, addend: 0x0, symName: __ZNKSt3__16chrono15__duration_castINS0_8durationIxNS_5ratioILl1ELl1000EEEEENS2_IeS4_EENS3_ILl1ELl1EEELb1ELb1EEclB7v160006ERKS5_, symObjAddr: 0x147C, symBinAddr: 0x1000036C8, symSize: 0x44 }
  - { offsetInCU: 0x96CD, offset: 0x96CD, size: 0x8, addend: 0x0, symName: __ZNSt3__16chrono8durationIeNS_5ratioILl1ELl1000EEEEC1B7v160006IeEERKT_PNS_9enable_ifIXaasr14is_convertibleIS8_eEE5valueooL_ZNS_17integral_constantIbLb1EE5valueEEntsr23treat_as_floating_pointIS6_EE5valueEvE4typeE, symObjAddr: 0x14C0, symBinAddr: 0x10000370C, symSize: 0x3C }
  - { offsetInCU: 0x9719, offset: 0x9719, size: 0x8, addend: 0x0, symName: __ZNSt3__16chrono8durationIeNS_5ratioILl1ELl1000EEEEC2B7v160006IeEERKT_PNS_9enable_ifIXaasr14is_convertibleIS8_eEE5valueooL_ZNS_17integral_constantIbLb1EE5valueEEntsr23treat_as_floating_pointIS6_EE5valueEvE4typeE, symObjAddr: 0x14FC, symBinAddr: 0x100003748, symSize: 0x28 }
  - { offsetInCU: 0x9765, offset: 0x9765, size: 0x8, addend: 0x0, symName: __ZNSt3__16chrono8durationIeNS_5ratioILl1ELl1000EEEEC2B7v160006IeNS2_ILl1ELl1EEEEERKNS1_IT_T0_EEPNS_9enable_ifIXaasr13__no_overflowIS8_S3_EE5valueooL_ZNS_17integral_constantIbLb1EE5valueEEaaeqsr13__no_overflowIS8_S3_E4typeE3denLi1Entsr23treat_as_floating_pointIS7_EE5valueEvE4typeE, symObjAddr: 0x1524, symBinAddr: 0x100003770, symSize: 0x48 }
  - { offsetInCU: 0x97BB, offset: 0x97BB, size: 0x8, addend: 0x0, symName: __ZNKSt3__16chrono8durationIeNS_5ratioILl1ELl1EEEE5countB7v160006Ev, symObjAddr: 0x15E8, symBinAddr: 0x100003834, symSize: 0x18 }
  - { offsetInCU: 0x97E0, offset: 0x97E0, size: 0x8, addend: 0x0, symName: __ZNSt3__16chrono8durationIxNS_5ratioILl1ELl1000000000EEEEC1B7v160006IxEERKT_PNS_9enable_ifIXaasr14is_convertibleIS8_xEE5valueooL_ZNS_17integral_constantIbLb0EE5valueEEntsr23treat_as_floating_pointIS6_EE5valueEvE4typeE, symObjAddr: 0x164C, symBinAddr: 0x100003898, symSize: 0x3C }
  - { offsetInCU: 0x982C, offset: 0x982C, size: 0x8, addend: 0x0, symName: __ZNSt3__16chrono8durationIxNS_5ratioILl1ELl1000000000EEEEC2B7v160006IxEERKT_PNS_9enable_ifIXaasr14is_convertibleIS8_xEE5valueooL_ZNS_17integral_constantIbLb0EE5valueEEntsr23treat_as_floating_pointIS6_EE5valueEvE4typeE, symObjAddr: 0x1688, symBinAddr: 0x1000038D4, symSize: 0x28 }
  - { offsetInCU: 0x9878, offset: 0x9878, size: 0x8, addend: 0x0, symName: __ZNKSt3__16chrono8durationIxNS_5ratioILl1ELl1000000000EEEE5countB7v160006Ev, symObjAddr: 0x171C, symBinAddr: 0x100003968, symSize: 0x18 }
  - { offsetInCU: 0x989D, offset: 0x989D, size: 0x8, addend: 0x0, symName: __ZNSt3__16chrono8durationIxNS_5ratioILl1ELl1000000000EEEEC1B7v160006IxNS2_ILl1ELl1000EEEEERKNS1_IT_T0_EEPNS_9enable_ifIXaasr13__no_overflowIS8_S3_EE5valueooL_ZNS_17integral_constantIbLb0EE5valueEEaaeqsr13__no_overflowIS8_S3_E4typeE3denLi1Entsr23treat_as_floating_pointIS7_EE5valueEvE4typeE, symObjAddr: 0x1734, symBinAddr: 0x100003980, symSize: 0x3C }
  - { offsetInCU: 0x98F3, offset: 0x98F3, size: 0x8, addend: 0x0, symName: __ZNSt3__16chrono8durationIxNS_5ratioILl1ELl1000000000EEEEC2B7v160006IxNS2_ILl1ELl1000EEEEERKNS1_IT_T0_EEPNS_9enable_ifIXaasr13__no_overflowIS8_S3_EE5valueooL_ZNS_17integral_constantIbLb0EE5valueEEaaeqsr13__no_overflowIS8_S3_E4typeE3denLi1Entsr23treat_as_floating_pointIS7_EE5valueEvE4typeE, symObjAddr: 0x1770, symBinAddr: 0x1000039BC, symSize: 0x50 }
  - { offsetInCU: 0x9949, offset: 0x9949, size: 0x8, addend: 0x0, symName: __ZNSt3__16chrono15duration_valuesIxE3maxB7v160006Ev, symObjAddr: 0x17C0, symBinAddr: 0x100003A0C, symSize: 0x14 }
  - { offsetInCU: 0x995D, offset: 0x995D, size: 0x8, addend: 0x0, symName: __ZNSt3__114numeric_limitsIxE3maxB7v160006Ev, symObjAddr: 0x17D4, symBinAddr: 0x100003A20, symSize: 0x14 }
  - { offsetInCU: 0x9971, offset: 0x9971, size: 0x8, addend: 0x0, symName: __ZNSt3__123__libcpp_numeric_limitsIxLb1EE3maxB7v160006Ev, symObjAddr: 0x17E8, symBinAddr: 0x100003A34, symSize: 0x8 }
...
